Certificate:
    Data:
        Version: 3 (0x2)
        Serial Number: 1 (0x1)
        Signature Algorithm: sha256WithRSAEncryption
        Issuer: C=US, CN=Test Root CA
        Validity
            Not Before: Nov 10 21:15:48 2023 GMT
            Not After : Nov  9 21:15:48 2025 GMT
        Subject: C=US, CN=Test Intermediate CA
        Subject Public Key Info:
            Public Key Algorithm: rsaEncryption
                RSA Public-Key: (2048 bit)
                Modulus:
                    00:d8:84:c4:11:e0:3d:b7:fd:ed:0a:d6:52:5b:34:
                    ae:a5:9f:b2:2d:4e:92:57:de:e8:f2:1f:4c:91:6b:
                    1d:d6:84:f6:f9:cb:aa:40:dc:40:67:7b:8e:51:3b:
                    e3:4e:47:be:6b:a7:35:d7:0d:f5:a6:25:15:21:2c:
                    26:d8:56:da:cf:21:14:ef:b4:35:7d:b5:cb:10:23:
                    46:33:88:f4:10:09:eb:75:06:2e:a2:42:8b:d5:d3:
                    15:ed:63:cb:74:eb:55:13:65:4c:1e:2a:7b:b8:6f:
                    22:79:17:e5:55:b6:69:3d:5f:d0:85:a3:4c:b9:02:
                    7e:af:db:ee:2c:a7:93:37:97:b3:2f:be:68:6a:e7:
                    d3:5b:29:55:76:5c:55:39:9b:b1:7c:95:da:fc:46:
                    33:5e:ee:f9:09:36:2e:b0:11:93:0a:03:c9:16:07:
                    09:49:f8:e9:f6:c8:2f:a5:11:dd:e5:7f:4f:9e:5b:
                    44:ab:69:7e:cc:ca:f2:5f:37:2c:e4:a0:aa:93:26:
                    35:23:24:14:01:34:4d:c6:61:db:6b:8e:cf:1d:5f:
                    58:d9:da:34:a1:5b:73:1e:ca:f4:1a:cd:2a:68:82:
                    24:06:b2:c0:b9:e9:6e:8b:3e:c3:05:87:b2:af:e5:
                    16:94:1f:11:35:5c:3e:b1:57:ba:fc:c7:10:b3:f1:
                    76:f9
                Exponent: 65537 (0x10001)
        X509v3 extensions:
            X509v3 Basic Constraints: critical
                CA:TRUE
            X509v3 Key Usage: critical
                Certificate Sign
    Signature Algorithm: sha256WithRSAEncryption
         40:ae:77:78:7e:29:d1:2f:bc:4a:fb:aa:0b:e7:f1:fa:da:c5:
         fd:15:2d:db:73:29:5b:1c:f0:f3:bc:a0:73:63:d3:89:07:9c:
         a8:1c:ff:72:4b:51:31:92:a4:3f:ee:26:5e:f7:1e:4b:6b:59:
         e2:de:fb:0c:b9:36:81:8e:e9:b9:0c:ee:87:e3:45:12:58:86:
         f3:1c:b7:ca:85:7f:cc:67:74:9c:4b:1d:77:d8:c2:a2:63:9d:
         f1:fd:e3:01:13:80:c7:82:88:de:3e:ec:0a:9f:e8:4e:93:8f:
         55:ea:41:b1:6b:1c:59:b4:37:bd:6c:52:e2:e5:b8:7f:01:d3:
         d5:58:f8:52:93:63:65:7d:80:ea:f1:ae:1f:9a:7b:7e:52:40:
         74:04:fd:75:67:7b:1e:e5:ef:28:06:c7:be:f6:6e:25:5a:ae:
         1c:7e:e5:1b:ef:9c:5b:83:e5:43:20:41:5d:f7:3f:64:ec:f7:
         52:51:df:23:dd:94:9e:6d:fb:81:16:67:bf:97:74:39:0f:53:
         dc:b5:f3:66:96:dc:18:0d:31:e1:de:97:c6:a2:78:72:ab:c1:
         8a:f6:e8:43:31:4f:d9:3c:11:02:9e:ee:ee:1d:ed:95:3d:d9:
         11:7e:f4:cd:55:a7:a1:1c:1e:c6:5c:b7:3b:b5:5c:cb:5c:1d:
         b0:95:98:a2
-----BEGIN CERTIFICATE-----
MIIC7jCCAdagAwIBAgIBATANBgkqhkiG9w0BAQsFADAkMQswCQYDVQQGEwJVUzEV
MBMGA1UEAwwMVGVzdCBSb290IENBMB4XDTIzMTExMDIxMTU0OFoXDTI1MTEwOTIx
MTU0OFowLDELMAkGA1UEBhMCVVMxHTAbBgNVBAMMFFRlc3QgSW50ZXJtZWRpYXRl
IENBMIIBIjANBgkqhkiG9w0BAQEFAAOCAQ8AMIIBCgKCAQEA2ITEEeA9t/3tCtZS
WzSupZ+yLU6SV97o8h9MkWsd1oT2+cuqQNxAZ3uOUTvjTke+a6c11w31piUVISwm
2FbazyEU77Q1fbXLECNGM4j0EAnrdQYuokKL1dMV7WPLdOtVE2VMHip7uG8ieRfl
VbZpPV/QhaNMuQJ+r9vuLKeTN5ezL75oaufTWylVdlxVOZuxfJXa/EYzXu75CTYu
sBGTCgPJFgcJSfjp9sgvpRHd5X9PnltEq2l+zMryXzcs5KCqkyY1IyQUATRNxmHb
a47PHV9Y2do0oVtzHsr0Gs0qaIIkBrLAueluiz7DBYeyr+UWlB8RNVw+sVe6/McQ
s/F2+QIDAQABoyMwITAPBgNVHRMBAf8EBTADAQH/MA4GA1UdDwEB/wQEAwICBDAN
BgkqhkiG9w0BAQsFAAOCAQEAQK53eH4p0S+8SvuqC+fx+trF/RUt23MpWxzw87yg
c2PTiQecqBz/cktRMZKkP+4mXvceS2tZ4t77DLk2gY7puQzuh+NFEliG8xy3yoV/
zGd0nEsdd9jComOd8f3jAROAx4KI3j7sCp/oTpOPVepBsWscWbQ3vWxS4uW4fwHT
1Vj4UpNjZX2A6vGuH5p7flJAdAT9dWd7HuXvKAbHvvZuJVquHH7lG++cW4PlQyBB
Xfc/ZOz3UlHfI92Unm37gRZnv5d0OQ9T3LXzZpbcGA0x4d6XxqJ4cqvBivboQzFP
2TwRAp7u7h3tlT3ZEX70zVWnoRwexly3O7Vcy1wdsJWYog==
-----END CERTIFICATE-----
