Certificate:
    Data:
        Version: 1 (0x0)
        Serial Number: 0 (0x0)
        Signature Algorithm: sha256WithRSAEncryption
        Issuer: C=US, CN=Test Intermediate CA
        Validity
            Not Before: Nov 10 21:16:09 2023 GMT
            Not After : Nov  9 21:16:09 2024 GMT
        Subject: C=US, CN=Test Leaf
        Subject Public Key Info:
            Public Key Algorithm: rsaEncryption
                RSA Public-Key: (2048 bit)
                Modulus:
                    00:ab:ba:8e:3a:1d:af:60:af:19:aa:af:9b:8a:d1:
                    f3:19:cb:7c:ac:43:90:0f:3e:67:80:7b:04:c0:41:
                    f1:0e:3b:46:95:91:8a:53:ff:3b:07:e3:a5:20:eb:
                    bd:c6:48:fa:cf:bb:94:43:dc:9f:67:76:ea:86:c2:
                    53:79:b1:5c:a2:bb:bf:fd:41:d8:a7:c3:77:bc:0a:
                    cb:97:9a:f4:41:60:eb:2f:22:cf:30:4b:e1:9e:cf:
                    ca:2c:a0:90:4a:2d:cf:31:8c:ff:10:25:ba:8b:df:
                    96:54:0f:b7:30:ce:4a:a3:78:09:d9:e5:85:2a:4e:
                    4b:53:0f:26:10:a2:eb:90:ee:c2:ac:18:16:3a:92:
                    f5:5c:cb:d4:30:f7:14:7d:23:d0:f7:ac:74:70:2d:
                    b7:28:50:e9:87:dc:e1:94:90:ad:1f:a8:a9:4c:04:
                    34:ec:c8:e4:b7:f9:35:c8:a8:36:0e:81:9d:52:e1:
                    da:93:51:f6:db:21:ee:6b:5e:c5:19:3a:85:0e:90:
                    5f:c9:cf:c1:8c:45:d3:cb:d3:b4:de:e9:f0:f1:c7:
                    ba:44:b9:4e:7f:55:14:76:1d:c4:42:f3:51:29:e0:
                    e0:af:b3:3e:b0:3a:bc:a8:17:09:3a:73:97:1b:84:
                    de:04:11:3a:1a:e0:9a:58:26:7e:95:04:30:a1:3e:
                    16:cd
                Exponent: 65537 (0x10001)
    Signature Algorithm: sha256WithRSAEncryption
         98:a1:82:86:7b:e8:82:04:d9:07:05:60:30:30:f6:38:32:91:
         21:e3:15:1f:42:e3:e5:e0:8e:a0:bb:91:55:72:4a:9c:3e:25:
         71:86:03:70:4b:56:7b:01:ea:25:65:dc:b9:61:54:9c:25:6c:
         a1:aa:25:a6:4f:19:93:ef:50:cd:f6:76:a5:67:c2:ce:90:58:
         ec:65:49:1f:8a:67:16:e8:ed:f6:bd:ed:96:8e:8f:35:60:b6:
         74:4a:52:da:1b:d1:4b:8f:4a:40:d3:93:fa:2b:51:25:1f:b7:
         7b:9e:a6:9c:d6:d7:b4:9f:9e:3a:8e:49:6d:8f:94:0d:29:f0:
         c0:72:c6:ba:f6:06:8c:14:f4:e5:44:37:df:81:95:bf:d2:04:
         c6:40:0c:5d:44:54:f1:0d:a5:81:fd:0c:ec:07:52:71:ff:cb:
         b0:0e:ed:bb:76:09:09:eb:61:a0:52:8f:e3:fc:4c:c0:68:b4:
         27:05:02:88:fa:bd:4e:ba:b1:66:a6:31:e0:13:d8:f8:ad:fb:
         1f:29:ff:de:8b:30:e6:1f:9e:7f:4a:59:8d:4e:82:f8:0f:5d:
         79:84:03:09:aa:4d:dd:14:d6:ff:2b:87:73:09:4e:fd:a9:06:
         b4:ca:ab:68:67:1e:87:19:21:bb:b1:b6:fe:31:84:7f:bb:78:
         51:c0:f1:e0
-----BEGIN CERTIFICATE-----
MIICwTCCAakCAQAwDQYJKoZIhvcNAQELBQAwLDELMAkGA1UEBhMCVVMxHTAbBgNV
BAMMFFRlc3QgSW50ZXJtZWRpYXRlIENBMB4XDTIzMTExMDIxMTYwOVoXDTI0MTEw
OTIxMTYwOVowITELMAkGA1UEBhMCVVMxEjAQBgNVBAMMCVRlc3QgTGVhZjCCASIw
DQYJKoZIhvcNAQEBBQADggEPADCCAQoCggEBAKu6jjodr2CvGaqvm4rR8xnLfKxD
kA8+Z4B7BMBB8Q47RpWRilP/OwfjpSDrvcZI+s+7lEPcn2d26obCU3mxXKK7v/1B
2KfDd7wKy5ea9EFg6y8izzBL4Z7PyiygkEotzzGM/xAluovfllQPtzDOSqN4Cdnl
hSpOS1MPJhCi65DuwqwYFjqS9VzL1DD3FH0j0PesdHAttyhQ6Yfc4ZSQrR+oqUwE
NOzI5Lf5NcioNg6BnVLh2pNR9tsh7mtexRk6hQ6QX8nPwYxF08vTtN7p8PHHukS5
Tn9VFHYdxELzUSng4K+zPrA6vKgXCTpzlxuE3gQROhrgmlgmfpUEMKE+Fs0CAwEA
ATANBgkqhkiG9w0BAQsFAAOCAQEAmKGChnvoggTZBwVgMDD2ODKRIeMVH0Lj5eCO
oLuRVXJKnD4lcYYDcEtWewHqJWXcuWFUnCVsoaolpk8Zk+9QzfZ2pWfCzpBY7GVJ
H4pnFujt9r3tlo6PNWC2dEpS2hvRS49KQNOT+itRJR+3e56mnNbXtJ+eOo5JbY+U
DSnwwHLGuvYGjBT05UQ334GVv9IExkAMXURU8Q2lgf0M7AdScf/LsA7tu3YJCeth
oFKP4/xMwGi0JwUCiPq9TrqxZqYx4BPY+K37Hyn/3osw5h+ef0pZjU6C+A9deYQD
CapN3RTW/yuHcwlO/akGtMqraGcehxkhu7G2/jGEf7t4UcDx4A==
-----END CERTIFICATE-----
