Certificate:
    Data:
        Version: 3 (0x2)
        Serial Number: 0 (0x0)
        Signature Algorithm: sha256WithRSAEncryption
        Issuer: C=US, CN=Test Root CA
        Validity
            Not Before: Nov 10 21:15:17 2023 GMT
            Not After : Nov  9 21:15:17 2026 GMT
        Subject: C=US, CN=Test Root CA
        Subject Public Key Info:
            Public Key Algorithm: rsaEncryption
                RSA Public-Key: (2048 bit)
                Modulus:
                    00:cd:89:2d:de:bc:51:10:50:77:d7:30:63:13:b3:
                    19:9c:f9:b9:08:e3:b0:6d:80:b0:68:ec:84:80:7a:
                    e9:8f:ed:38:89:42:1a:7f:4c:fa:cf:10:fb:85:84:
                    98:94:92:d0:7d:33:05:d7:1f:ed:e6:f0:00:a6:e1:
                    d7:31:61:b8:39:0a:8a:eb:ac:76:dd:2e:64:20:0e:
                    7a:52:d4:2f:42:c5:89:6c:fb:d3:9d:65:f6:0f:c9:
                    a5:9e:64:96:a2:a5:41:f8:08:d2:dd:76:18:8b:90:
                    3a:81:49:0c:16:d4:37:23:3d:65:88:08:c0:32:15:
                    53:96:e6:13:a1:0a:e9:61:1b:65:b8:b5:7c:9f:32:
                    02:7f:99:8e:8d:1b:7d:bb:c2:22:3d:fa:4d:05:fa:
                    e4:6a:0f:4e:ef:1c:44:47:2a:b0:09:d1:14:44:47:
                    25:90:e1:1b:71:8d:e7:7d:1d:4b:f2:3e:5f:91:93:
                    86:ca:28:7d:ad:1e:a6:fe:18:6e:cb:bf:a7:9c:20:
                    9b:4b:96:bd:97:e3:8f:4e:49:34:32:af:d2:b5:0c:
                    96:9d:1a:81:5b:48:73:97:79:ae:e0:41:e0:8e:05:
                    fd:c6:c5:ca:f7:8a:5a:9a:20:ab:41:0c:9b:f7:a1:
                    64:75:e1:fc:80:4a:a3:4b:44:2b:2f:2b:6f:e7:0e:
                    a0:cd
                Exponent: 65537 (0x10001)
        X509v3 extensions:
            X509v3 Basic Constraints: critical
                CA:TRUE
            X509v3 Key Usage: critical
                Certificate Sign
    Signature Algorithm: sha256WithRSAEncryption
         97:ce:ed:53:f7:9e:d2:92:03:2d:f2:77:67:07:8b:fe:00:5f:
         cb:ce:c1:d5:22:25:d5:ff:6c:6b:01:db:d2:74:22:c1:1b:c0:
         5d:61:0c:1c:3d:1c:59:5d:72:2b:14:3d:0d:a8:85:8b:e4:3b:
         b9:5c:13:8e:64:eb:9b:25:05:f6:9b:77:61:29:f8:d2:47:03:
         64:a7:f0:73:bc:71:5f:e2:d5:e3:79:2b:be:1a:27:b0:91:8f:
         84:4a:1e:3e:7f:91:b4:74:a7:d0:75:c0:cd:bb:7e:74:00:c9:
         47:00:82:4c:5c:60:48:d9:01:6e:11:e5:25:fe:21:96:c1:b7:
         83:ca:44:af:e7:c6:26:19:e5:4b:05:9b:be:8e:df:2b:78:f1:
         ca:7e:7f:d8:d3:b1:8c:27:fb:f2:fb:9c:09:2a:5b:61:84:07:
         ab:1a:c9:c9:1a:26:03:09:3f:b4:cf:16:45:ba:a6:9c:d8:b3:
         db:87:39:44:5b:38:1a:0e:22:57:06:bd:c4:3d:2c:31:4d:55:
         f4:f3:e4:e3:5a:eb:d2:43:f6:8f:35:8b:af:86:65:f8:8c:43:
         09:0c:de:be:07:e7:f9:ec:65:73:91:44:a6:48:0f:e9:57:01:
         ca:89:6f:55:30:2a:cb:96:48:d8:ab:1c:d7:3d:d2:7d:fe:41:
         9c:15:29:d1
-----BEGIN CERTIFICATE-----
MIIC5jCCAc6gAwIBAgIBADANBgkqhkiG9w0BAQsFADAkMQswCQYDVQQGEwJVUzEV
MBMGA1UEAwwMVGVzdCBSb290IENBMB4XDTIzMTExMDIxMTUxN1oXDTI2MTEwOTIx
MTUxN1owJDELMAkGA1UEBhMCVVMxFTATBgNVBAMMDFRlc3QgUm9vdCBDQTCCASIw
DQYJKoZIhvcNAQEBBQADggEPADCCAQoCggEBAM2JLd68URBQd9cwYxOzGZz5uQjj
sG2AsGjshIB66Y/tOIlCGn9M+s8Q+4WEmJSS0H0zBdcf7ebwAKbh1zFhuDkKiuus
dt0uZCAOelLUL0LFiWz7051l9g/JpZ5klqKlQfgI0t12GIuQOoFJDBbUNyM9ZYgI
wDIVU5bmE6EK6WEbZbi1fJ8yAn+Zjo0bfbvCIj36TQX65GoPTu8cREcqsAnRFERH
JZDhG3GN530dS/I+X5GThsoofa0epv4Ybsu/p5wgm0uWvZfjj05JNDKv0rUMlp0a
gVtIc5d5ruBB4I4F/cbFyveKWpogq0EMm/ehZHXh/IBKo0tEKy8rb+cOoM0CAwEA
AaMjMCEwDwYDVR0TAQH/BAUwAwEB/zAOBgNVHQ8BAf8EBAMCAgQwDQYJKoZIhvcN
AQELBQADggEBAJfO7VP3ntKSAy3yd2cHi/4AX8vOwdUiJdX/bGsB29J0IsEbwF1h
DBw9HFldcisUPQ2ohYvkO7lcE45k65slBfabd2Ep+NJHA2Sn8HO8cV/i1eN5K74a
J7CRj4RKHj5/kbR0p9B1wM27fnQAyUcAgkxcYEjZAW4R5SX+IZbBt4PKRK/nxiYZ
5UsFm76O3yt48cp+f9jTsYwn+/L7nAkqW2GEB6sayckaJgMJP7TPFkW6ppzYs9uH
OURbOBoOIlcGvcQ9LDFNVfTz5ONa69JD9o81i6+GZfiMQwkM3r4H5/nsZXORRKZI
D+lXAcqJb1UwKsuWSNirHNc90n3+QZwVKdE=
-----END CERTIFICATE-----
